Certificate:
    Data:
        Version: 3 (0x2)
        Serial Number: 2 (0x2)
    Signature Algorithm: sha1WithRSAEncryption
        Issuer: DC=org, DC=simple, O=Simple Inc, OU=Simple Root CA, CN=Simple Root CA
        Validity
            Not Before: Apr 29 22:43:26 2018 GMT
            Not After : Apr 28 22:43:26 2028 GMT
        Subject: DC=org, DC=simple, O=Simple Inc, OU=Simple Signing CA, CN=Simple Signing CA
        Subject Public Key Info:
            Public Key Algorithm: rsaEncryption
                Public-Key: (2048 bit)
                Modulus:
                    00:c2:90:6b:06:79:27:c8:a7:5b:d9:65:f2:da:f4:
                    3b:84:4e:bf:95:c9:84:d4:99:04:a1:7e:46:98:32:
                    42:d3:41:14:29:a1:a2:65:60:08:72:0d:ff:6c:81:
                    cf:93:2f:33:44:94:db:86:52:25:19:d9:33:69:72:
                    54:19:4a:4f:b8:06:86:6c:a8:f6:69:e3:a8:d4:b8:
                    54:49:9c:ce:a7:bb:1c:88:c3:4e:f5:01:95:38:ad:
                    63:5b:84:49:08:88:fc:c4:6a:c9:7b:2b:af:f3:d5:
                    f6:4d:3c:26:45:f9:be:e8:58:60:be:aa:8d:dd:4a:
                    33:b2:75:8f:e5:52:a3:47:cf:fc:a4:af:de:98:0c:
                    40:18:ff:a8:f7:b5:c7:c9:f9:78:a7:86:9f:5c:4d:
                    a3:59:e5:8a:56:fc:27:e7:07:57:97:5a:f6:3a:c5:
                    45:dc:7b:46:28:60:33:e6:14:66:ac:88:19:35:aa:
                    5b:f9:15:19:62:92:8f:a0:94:f0:96:f8:f8:fe:b1:
                    5e:2e:34:16:6b:f2:68:5a:86:ba:0b:73:e6:57:fb:
                    73:39:8b:7c:8b:62:55:49:2b:06:ec:11:e6:13:fc:
                    4b:e8:51:49:43:10:2c:76:75:48:f0:c8:ce:50:67:
                    2c:2b:28:68:bb:15:36:c1:9c:76:0e:c8:70:bc:f7:
                    6d:cf
                Exponent: 65537 (0x10001)
        X509v3 extensions:
            X509v3 Key Usage: critical
                Certificate Sign, CRL Sign
            X509v3 Basic Constraints: critical
                CA:TRUE, pathlen:0
            X509v3 Subject Key Identifier: 
                94:B1:3C:74:80:72:B2:59:AB:52:1E:74:ED:4A:28:FD:7C:84:2F:5E
            X509v3 Authority Key Identifier: 
                keyid:F9:4B:2F:27:C3:CE:CB:A9:53:7D:BA:84:59:A9:D6:85:6F:C3:DD:50

    Signature Algorithm: sha1WithRSAEncryption
         02:23:3c:79:85:1f:74:ab:ca:46:43:70:e0:eb:6a:7b:15:60:
         ef:9c:02:44:b2:29:f3:18:78:c0:64:88:a5:9d:42:31:ce:5d:
         7a:f8:e9:e5:f5:b0:11:9e:f9:a0:15:97:bc:7c:b4:91:06:bd:
         c0:db:c1:76:6a:c5:02:89:1d:ab:63:b5:b9:14:4b:48:73:ef:
         63:da:fe:1f:8e:45:95:b1:24:62:67:4e:a8:7d:64:79:2b:18:
         8f:c4:a4:a9:88:ab:ff:d9:90:3b:bb:b2:3b:01:d0:28:13:6d:
         91:5e:1e:8a:a1:fd:17:a2:e8:f5:f7:d3:f8:90:0a:e6:a3:e3:
         cf:bd:d1:95:e7:66:0f:c5:78:7c:d2:0f:4c:c4:bb:44:fa:ec:
         f9:09:a1:da:67:73:a1:a6:a9:50:eb:07:9a:d5:92:05:8c:d2:
         3e:fc:b3:89:3c:74:73:06:68:fd:0f:12:69:19:1a:b0:98:3e:
         1f:6b:6b:a4:36:74:ff:de:58:a9:2e:f0:e5:ea:dc:f9:50:e3:
         2a:76:0e:15:6a:6e:4a:a0:67:26:40:13:0d:7b:19:48:9f:97:
         10:67:c1:57:eb:2a:12:25:ce:87:8f:36:07:bb:3e:c2:52:93:
         2f:85:c8:52:51:3f:9b:24:e6:83:84:46:79:9b:65:c8:a3:35:
         1a:f8:d9:c4
-----BEGIN CERTIFICATE-----
MIIDzzCCAregAwIBAgIBAjANBgkqhkiG9w0BAQUFADB0MRMwEQYKCZImiZPyLGQB
GRYDb3JnMRYwFAYKCZImiZPyLGQBGRYGc2ltcGxlMRMwEQYDVQQKDApTaW1wbGUg
SW5jMRcwFQYDVQQLDA5TaW1wbGUgUm9vdCBDQTEXMBUGA1UEAwwOU2ltcGxlIFJv
b3QgQ0EwHhcNMTgwNDI5MjI0MzI2WhcNMjgwNDI4MjI0MzI2WjB6MRMwEQYKCZIm
iZPyLGQBGRYDb3JnMRYwFAYKCZImiZPyLGQBGRYGc2ltcGxlMRMwEQYDVQQKDApT
aW1wbGUgSW5jMRowGAYDVQQLDBFTaW1wbGUgU2lnbmluZyBDQTEaMBgGA1UEAwwR
U2ltcGxlIFNpZ25pbmcgQ0EwggEiMA0GCSqGSIb3DQEBAQUAA4IBDwAwggEKAoIB
AQDCkGsGeSfIp1vZZfLa9DuETr+VyYTUmQShfkaYMkLTQRQpoaJlYAhyDf9sgc+T
LzNElNuGUiUZ2TNpclQZSk+4BoZsqPZp46jUuFRJnM6nuxyIw071AZU4rWNbhEkI
iPzEasl7K6/z1fZNPCZF+b7oWGC+qo3dSjOydY/lUqNHz/ykr96YDEAY/6j3tcfJ
+Xinhp9cTaNZ5YpW/CfnB1eXWvY6xUXce0YoYDPmFGasiBk1qlv5FRliko+glPCW
+Pj+sV4uNBZr8mhahroLc+ZX+3M5i3yLYlVJKwbsEeYT/EvoUUlDECx2dUjwyM5Q
ZywrKGi7FTbBnHYOyHC8923PAgMBAAGjZjBkMA4GA1UdDwEB/wQEAwIBBjASBgNV
HRMBAf8ECDAGAQH/AgEAMB0GA1UdDgQWBBSUsTx0gHKyWatSHnTtSij9fIQvXjAf
BgNVHSMEGDAWgBT5Sy8nw87LqVN9uoRZqdaFb8PdUDANBgkqhkiG9w0BAQUFAAOC
AQEAAiM8eYUfdKvKRkNw4OtqexVg75wCRLIp8xh4wGSIpZ1CMc5devjp5fWwEZ75
oBWXvHy0kQa9wNvBdmrFAokdq2O1uRRLSHPvY9r+H45FlbEkYmdOqH1keSsYj8Sk
qYir/9mQO7uyOwHQKBNtkV4eiqH9F6Lo9ffT+JAK5qPjz73RledmD8V4fNIPTMS7
RPrs+Qmh2mdzoaapUOsHmtWSBYzSPvyziTx0cwZo/Q8SaRkasJg+H2trpDZ0/95Y
qS7w5erc+VDjKnYOFWpuSqBnJkATDXsZSJ+XEGfBV+sqEiXOh482B7s+wlKTL4XI
UlE/myTmg4RGeZtlyKM1GvjZxA==
-----END CERTIFICATE-----
